target datalayout = "e-m:e-p270:32:32-p271:32:32-p272:64:64-i64:64-i128:128-f80:128-n8:16:32:64-S128"
target triple = "x86_64-pc-linux-gnu"

%struct.expert_field = type { i32, i32 }

@hf_atmarp_src_atm_afi = internal global i32 0, align 4
@hf_atmarp_src_atm_data_country_code_group = internal global i32 0, align 4
@hf_atmarp_src_atm_data_country_code = internal global i32 0, align 4
@hf_atmarp_src_atm_high_order_dsp = internal global i32 0, align 4
@hf_atmarp_src_atm_end_system_identifier = internal global i32 0, align 4
@hf_atmarp_src_atm_selector = internal global i32 0, align 4
@hf_atmarp_src_atm_international_code_designator_group = internal global i32 0, align 4
@hf_atmarp_src_atm_international_code_designator = internal global i32 0, align 4
@hf_atmarp_src_atm_e_164_isdn_group = internal global i32 0, align 4
@hf_atmarp_src_atm_e_164_isdn = internal global i32 0, align 4
@ei_atmarp_src_atm_unknown_afi = internal global %struct.expert_field zeroinitializer, align 4
@hf_atmarp_src_atm_rest_of_address = internal global i32 0, align 4

; Function Attrs: null_pointer_is_valid sspstrong uwtable
define hidden void @dissect_atm_nsap(ptr noundef %0, ptr noundef %1, i32 noundef %2, i32 noundef %3, ptr noundef %4) #0 {
  %6 = alloca ptr, align 8
  %7 = alloca ptr, align 8
  %8 = alloca i32, align 4
  %9 = alloca i32, align 4
  %10 = alloca ptr, align 8
  %11 = alloca i8, align 1
  %12 = alloca ptr, align 8
  store ptr %0, ptr %6, align 8
  store ptr %1, ptr %7, align 8
  store i32 %2, ptr %8, align 4
  store i32 %3, ptr %9, align 4
  store ptr %4, ptr %10, align 8
  call void @llvm.lifetime.start.p0(i64 1, ptr %11) #11
  call void @llvm.lifetime.start.p0(i64 8, ptr %12) #11
  %13 = load ptr, ptr %6, align 8
  %14 = load i32, ptr %8, align 4
  %15 = call zeroext i8 @tvb_get_uint8(ptr noundef %13, i32 noundef %14)
  store i8 %15, ptr %11, align 1
  %16 = load ptr, ptr %10, align 8
  %17 = load i32, ptr @hf_atmarp_src_atm_afi, align 4
  %18 = load ptr, ptr %6, align 8
  %19 = load i32, ptr %8, align 4
  %20 = call ptr @proto_tree_add_item(ptr noundef %16, i32 noundef %17, ptr noundef %18, i32 noundef %19, i32 noundef 1, i32 noundef 0)
  store ptr %20, ptr %12, align 8
  %21 = load i8, ptr %11, align 1
  %22 = zext i8 %21 to i32
  switch i32 %22, label %122 [
    i32 57, label %23
    i32 189, label %23
    i32 71, label %56
    i32 197, label %56
    i32 69, label %89
    i32 195, label %89
  ]

23:                                               ; preds = %5, %5
  %24 = load ptr, ptr %10, align 8
  %25 = load i8, ptr %11, align 1
  %26 = zext i8 %25 to i32
  %27 = icmp eq i32 %26, 189
  br i1 %27, label %28, label %30

28:                                               ; preds = %23
  %29 = load i32, ptr @hf_atmarp_src_atm_data_country_code_group, align 4
  br label %32

30:                                               ; preds = %23
  %31 = load i32, ptr @hf_atmarp_src_atm_data_country_code, align 4
  br label %32

32:                                               ; preds = %30, %28
  %33 = phi i32 [ %29, %28 ], [ %31, %30 ]
  %34 = load ptr, ptr %6, align 8
  %35 = load i32, ptr %8, align 4
  %36 = add i32 %35, 1
  %37 = call ptr @proto_tree_add_item(ptr noundef %24, i32 noundef %33, ptr noundef %34, i32 noundef %36, i32 noundef 2, i32 noundef 0)
  %38 = load ptr, ptr %10, align 8
  %39 = load i32, ptr @hf_atmarp_src_atm_high_order_dsp, align 4
  %40 = load ptr, ptr %6, align 8
  %41 = load i32, ptr %8, align 4
  %42 = add i32 %41, 3
  %43 = call ptr @proto_tree_add_item(ptr noundef %38, i32 noundef %39, ptr noundef %40, i32 noundef %42, i32 noundef 10, i32 noundef 0)
  %44 = load ptr, ptr %10, align 8
  %45 = load i32, ptr @hf_atmarp_src_atm_end_system_identifier, align 4
  %46 = load ptr, ptr %6, align 8
  %47 = load i32, ptr %8, align 4
  %48 = add i32 %47, 13
  %49 = call ptr @proto_tree_add_item(ptr noundef %44, i32 noundef %45, ptr noundef %46, i32 noundef %48, i32 noundef 6, i32 noundef 0)
  %50 = load ptr, ptr %10, align 8
  %51 = load i32, ptr @hf_atmarp_src_atm_selector, align 4
  %52 = load ptr, ptr %6, align 8
  %53 = load i32, ptr %8, align 4
  %54 = add i32 %53, 19
  %55 = call ptr @proto_tree_add_item(ptr noundef %50, i32 noundef %51, ptr noundef %52, i32 noundef %54, i32 noundef 1, i32 noundef 0)
  br label %134

56:                                               ; preds = %5, %5
  %57 = load ptr, ptr %10, align 8
  %58 = load i8, ptr %11, align 1
  %59 = zext i8 %58 to i32
  %60 = icmp eq i32 %59, 197
  br i1 %60, label %61, label %63

61:                                               ; preds = %56
  %62 = load i32, ptr @hf_atmarp_src_atm_international_code_designator_group, align 4
  br label %65

63:                                               ; preds = %56
  %64 = load i32, ptr @hf_atmarp_src_atm_international_code_designator, align 4
  br label %65

65:                                               ; preds = %63, %61
  %66 = phi i32 [ %62, %61 ], [ %64, %63 ]
  %67 = load ptr, ptr %6, align 8
  %68 = load i32, ptr %8, align 4
  %69 = add i32 %68, 1
  %70 = call ptr @proto_tree_add_item(ptr noundef %57, i32 noundef %66, ptr noundef %67, i32 noundef %69, i32 noundef 2, i32 noundef 0)
  %71 = load ptr, ptr %10, align 8
  %72 = load i32, ptr @hf_atmarp_src_atm_high_order_dsp, align 4
  %73 = load ptr, ptr %6, align 8
  %74 = load i32, ptr %8, align 4
  %75 = add i32 %74, 3
  %76 = call ptr @proto_tree_add_item(ptr noundef %71, i32 noundef %72, ptr noundef %73, i32 noundef %75, i32 noundef 10, i32 noundef 0)
  %77 = load ptr, ptr %10, align 8
  %78 = load i32, ptr @hf_atmarp_src_atm_end_system_identifier, align 4
  %79 = load ptr, ptr %6, align 8
  %80 = load i32, ptr %8, align 4
  %81 = add i32 %80, 13
  %82 = call ptr @proto_tree_add_item(ptr noundef %77, i32 noundef %78, ptr noundef %79, i32 noundef %81, i32 noundef 6, i32 noundef 0)
  %83 = load ptr, ptr %10, align 8
  %84 = load i32, ptr @hf_atmarp_src_atm_selector, align 4
  %85 = load ptr, ptr %6, align 8
  %86 = load i32, ptr %8, align 4
  %87 = add i32 %86, 19
  %88 = call ptr @proto_tree_add_item(ptr noundef %83, i32 noundef %84, ptr noundef %85, i32 noundef %87, i32 noundef 1, i32 noundef 0)
  br label %134

89:                                               ; preds = %5, %5
  %90 = load ptr, ptr %10, align 8
  %91 = load i8, ptr %11, align 1
  %92 = zext i8 %91 to i32
  %93 = icmp eq i32 %92, 195
  br i1 %93, label %94, label %96

94:                                               ; preds = %89
  %95 = load i32, ptr @hf_atmarp_src_atm_e_164_isdn_group, align 4
  br label %98

96:                                               ; preds = %89
  %97 = load i32, ptr @hf_atmarp_src_atm_e_164_isdn, align 4
  br label %98

98:                                               ; preds = %96, %94
  %99 = phi i32 [ %95, %94 ], [ %97, %96 ]
  %100 = load ptr, ptr %6, align 8
  %101 = load i32, ptr %8, align 4
  %102 = add i32 %101, 1
  %103 = call ptr @proto_tree_add_item(ptr noundef %90, i32 noundef %99, ptr noundef %100, i32 noundef %102, i32 noundef 8, i32 noundef 0)
  %104 = load ptr, ptr %10, align 8
  %105 = load i32, ptr @hf_atmarp_src_atm_high_order_dsp, align 4
  %106 = load ptr, ptr %6, align 8
  %107 = load i32, ptr %8, align 4
  %108 = add i32 %107, 9
  %109 = call ptr @proto_tree_add_item(ptr noundef %104, i32 noundef %105, ptr noundef %106, i32 noundef %108, i32 noundef 4, i32 noundef 0)
  %110 = load ptr, ptr %10, align 8
  %111 = load i32, ptr @hf_atmarp_src_atm_end_system_identifier, align 4
  %112 = load ptr, ptr %6, align 8
  %113 = load i32, ptr %8, align 4
  %114 = add i32 %113, 13
  %115 = call ptr @proto_tree_add_item(ptr noundef %110, i32 noundef %111, ptr noundef %112, i32 noundef %114, i32 noundef 6, i32 noundef 0)
  %116 = load ptr, ptr %10, align 8
  %117 = load i32, ptr @hf_atmarp_src_atm_selector, align 4
  %118 = load ptr, ptr %6, align 8
  %119 = load i32, ptr %8, align 4
  %120 = add i32 %119, 19
  %121 = call ptr @proto_tree_add_item(ptr noundef %116, i32 noundef %117, ptr noundef %118, i32 noundef %120, i32 noundef 1, i32 noundef 0)
  br label %134

122:                                              ; preds = %5
  %123 = load ptr, ptr %7, align 8
  %124 = load ptr, ptr %12, align 8
  %125 = call ptr @expert_add_info(ptr noundef %123, ptr noundef %124, ptr noundef @ei_atmarp_src_atm_unknown_afi)
  %126 = load ptr, ptr %10, align 8
  %127 = load i32, ptr @hf_atmarp_src_atm_rest_of_address, align 4
  %128 = load ptr, ptr %6, align 8
  %129 = load i32, ptr %8, align 4
  %130 = add i32 %129, 1
  %131 = load i32, ptr %9, align 4
  %132 = sub i32 %131, 1
  %133 = call ptr @proto_tree_add_item(ptr noundef %126, i32 noundef %127, ptr noundef %128, i32 noundef %130, i32 noundef %132, i32 noundef 0)
  br label %134

134:                                              ; preds = %122, %98, %65, %32
  call void @llvm.lifetime.end.p0(i64 8, ptr %12) #11
  call void @llvm.lifetime.end.p0(i64 1, ptr %11) #11
  ret void
}