; Function Attrs: null_pointer_is_valid sspstrong uwtable
define hidden void @dissect_atm_nsap(ptr noundef %0, ptr noundef %1, i32 noundef %2, i32 noundef %3, ptr noundef %4) local_unnamed_addr #0 {
  %6 = tail call zeroext i8 @tvb_get_uint8(ptr noundef %0, i32 noundef %2)
  %7 = load i32, ptr @hf_atmarp_src_atm_afi, align 4
  %8 = tail call ptr @proto_tree_add_item(ptr noundef %4, i32 noundef %7, ptr noundef %0, i32 noundef %2, i32 noundef 1, i32 noundef 0)
  switch i8 %6, label %57 [
    i8 57, label %9
    i8 -67, label %9
    i8 71, label %25
    i8 -59, label %25
    i8 69, label %41
    i8 -61, label %41
  ]

9:                                                ; preds = %5, %5
  %10 = icmp eq i8 %6, -67
  %11 = load i32, ptr @hf_atmarp_src_atm_data_country_code_group, align 4
  %12 = load i32, ptr @hf_atmarp_src_atm_data_country_code, align 4
  %13 = select i1 %10, i32 %11, i32 %12
  %14 = add i32 %2, 1
  %15 = tail call ptr @proto_tree_add_item(ptr noundef %4, i32 noundef %13, ptr noundef %0, i32 noundef %14, i32 noundef 2, i32 noundef 0)
  %16 = load i32, ptr @hf_atmarp_src_atm_high_order_dsp, align 4
  %17 = add i32 %2, 3
  %18 = tail call ptr @proto_tree_add_item(ptr noundef %4, i32 noundef %16, ptr noundef %0, i32 noundef %17, i32 noundef 10, i32 noundef 0)
  %19 = load i32, ptr @hf_atmarp_src_atm_end_system_identifier, align 4
  %20 = add i32 %2, 13
  %21 = tail call ptr @proto_tree_add_item(ptr noundef %4, i32 noundef %19, ptr noundef %0, i32 noundef %20, i32 noundef 6, i32 noundef 0)
  %22 = load i32, ptr @hf_atmarp_src_atm_selector, align 4
  %23 = add i32 %2, 19
  %24 = tail call ptr @proto_tree_add_item(ptr noundef %4, i32 noundef %22, ptr noundef %0, i32 noundef %23, i32 noundef 1, i32 noundef 0)
  br label %63

25:                                               ; preds = %5, %5
  %26 = icmp eq i8 %6, -59
  %27 = load i32, ptr @hf_atmarp_src_atm_international_code_designator_group, align 4
  %28 = load i32, ptr @hf_atmarp_src_atm_international_code_designator, align 4
  %29 = select i1 %26, i32 %27, i32 %28
  %30 = add i32 %2, 1
  %31 = tail call ptr @proto_tree_add_item(ptr noundef %4, i32 noundef %29, ptr noundef %0, i32 noundef %30, i32 noundef 2, i32 noundef 0)
  %32 = load i32, ptr @hf_atmarp_src_atm_high_order_dsp, align 4
  %33 = add i32 %2, 3
  %34 = tail call ptr @proto_tree_add_item(ptr noundef %4, i32 noundef %32, ptr noundef %0, i32 noundef %33, i32 noundef 10, i32 noundef 0)
  %35 = load i32, ptr @hf_atmarp_src_atm_end_system_identifier, align 4
  %36 = add i32 %2, 13
  %37 = tail call ptr @proto_tree_add_item(ptr noundef %4, i32 noundef %35, ptr noundef %0, i32 noundef %36, i32 noundef 6, i32 noundef 0)
  %38 = load i32, ptr @hf_atmarp_src_atm_selector, align 4
  %39 = add i32 %2, 19
  %40 = tail call ptr @proto_tree_add_item(ptr noundef %4, i32 noundef %38, ptr noundef %0, i32 noundef %39, i32 noundef 1, i32 noundef 0)
  br label %63

41:                                               ; preds = %5, %5
  %42 = icmp eq i8 %6, -61
  %43 = load i32, ptr @hf_atmarp_src_atm_e_164_isdn_group, align 4
  %44 = load i32, ptr @hf_atmarp_src_atm_e_164_isdn, align 4
  %45 = select i1 %42, i32 %43, i32 %44
  %46 = add i32 %2, 1
  %47 = tail call ptr @proto_tree_add_item(ptr noundef %4, i32 noundef %45, ptr noundef %0, i32 noundef %46, i32 noundef 8, i32 noundef 0)
  %48 = load i32, ptr @hf_atmarp_src_atm_high_order_dsp, align 4
  %49 = add i32 %2, 9
  %50 = tail call ptr @proto_tree_add_item(ptr noundef %4, i32 noundef %48, ptr noundef %0, i32 noundef %49, i32 noundef 4, i32 noundef 0)
  %51 = load i32, ptr @hf_atmarp_src_atm_end_system_identifier, align 4
  %52 = add i32 %2, 13
  %53 = tail call ptr @proto_tree_add_item(ptr noundef %4, i32 noundef %51, ptr noundef %0, i32 noundef %52, i32 noundef 6, i32 noundef 0)
  %54 = load i32, ptr @hf_atmarp_src_atm_selector, align 4
  %55 = add i32 %2, 19
  %56 = tail call ptr @proto_tree_add_item(ptr noundef %4, i32 noundef %54, ptr noundef %0, i32 noundef %55, i32 noundef 1, i32 noundef 0)
  br label %63

57:                                               ; preds = %5
  %58 = tail call ptr @expert_add_info(ptr noundef %1, ptr noundef %8, ptr noundef nonnull @ei_atmarp_src_atm_unknown_afi)
  %59 = load i32, ptr @hf_atmarp_src_atm_rest_of_address, align 4
  %60 = add i32 %2, 1
  %61 = add i32 %3, -1
  %62 = tail call ptr @proto_tree_add_item(ptr noundef %4, i32 noundef %59, ptr noundef %0, i32 noundef %60, i32 noundef %61, i32 noundef 0)
  br label %63

63:                                               ; preds = %57, %41, %25, %9
  ret void
}